; Function Attrs: mustprogress nounwind uwtable
define internal fastcc void @"_ZZN3tev22BackgroundImagesLoader7enqueueERKNSt3__14__fs10filesystem4pathERKNS1_12basic_stringIcNS1_11char_traitsIcEENS1_9allocatorIcEEEEbRKNS1_10shared_ptrINS_5ImageEEEEN3$_1D2Ev"(ptr noundef nonnull align 8 dereferenceable(88) %0) unnamed_addr #1 align 2 {
  %2 = getelementptr inbounds i8, ptr %0, i64 72
  %3 = load ptr, ptr %2, align 8
  %.not.i = icmp eq ptr %3, null
  br i1 %.not.i, label %_ZNSt3__110shared_ptrIN3tev5ImageEED2B8ne190000Ev.exit, label %4

4:                                                ; preds = %1
  %5 = getelementptr inbounds i8, ptr %3, i64 8
  %6 = atomicrmw add ptr %5, i64 -1 acq_rel, align 8
  %7 = icmp eq i64 %6, 0
  br i1 %7, label %8, label %_ZNSt3__110shared_ptrIN3tev5ImageEED2B8ne190000Ev.exit

8:                                                ; preds = %4
  %9 = load ptr, ptr %3, align 8
  %10 = getelementptr inbounds i8, ptr %9, i64 16
  %11 = load ptr, ptr %10, align 8
  tail call void %11(ptr noundef nonnull align 8 dereferenceable(16) %3) #27
  tail call void @_ZNSt3__119__shared_weak_count14__release_weakEv(ptr noundef nonnull align 8 dereferenceable(24) %3) #27
  br label %_ZNSt3__110shared_ptrIN3tev5ImageEED2B8ne190000Ev.exit

_ZNSt3__110shared_ptrIN3tev5ImageEED2B8ne190000Ev.exit: ; preds = %1, %4, %8
  %12 = getelementptr inbounds i8, ptr %0, i64 32
  tail call void @_ZNSt3__112basic_stringIcNS_11char_traitsIcEENS_9allocatorIcEEED1Ev(ptr noundef nonnull align 8 dereferenceable(24) %12) #27
  %13 = getelementptr inbounds i8, ptr %0, i64 8
  tail call void @_ZNSt3__112basic_stringIcNS_11char_traitsIcEENS_9allocatorIcEEED1Ev(ptr noundef nonnull align 8 dereferenceable(24) %13) #27
  ret void
}